target datalayout = "e-m:e-p270:32:32-p271:32:32-p272:64:64-i64:64-i128:128-f80:128-n8:16:32:64-S128"
target triple = "x86_64-pc-linux-gnu"

; Function Attrs: mustprogress nounwind uwtable
define dso_local noundef i32 @_Z3Addii(i32 noundef %0, i32 noundef %1) #4 {
  %3 = alloca i32, align 4
  %4 = alloca i32, align 4
  store i32 %0, ptr %3, align 4
  store i32 %1, ptr %4, align 4
  %5 = load i32, ptr %3, align 4
  %6 = load i32, ptr %4, align 4
  %7 = add nsw i32 %5, %6
  ret i32 %7
}

; Function Attrs: mustprogress nounwind uwtable
define dso_local noundef i32 @_Z9TestEmptyi(i32 noundef %0) #4 {
  %2 = alloca i32, align 4
  %3 = alloca i32, align 4
  %4 = alloca i32, align 4
  store i32 %0, ptr %2, align 4
  store i32 0, ptr %3, align 4
  store i32 0, ptr %4, align 4
  br label %5

5:                                                ; preds = %13, %1
  %6 = load i32, ptr %4, align 4
  %7 = load i32, ptr %2, align 4
  %8 = icmp slt i32 %6, %7
  br i1 %8, label %9, label %16

9:                                                ; preds = %5
  %10 = load i32, ptr %3, align 4
  %11 = load i32, ptr %4, align 4
  %12 = call noundef i32 @_Z3Addii(i32 noundef %10, i32 noundef %11)
  store i32 %12, ptr %3, align 4
  br label %13

13:                                               ; preds = %9
  %14 = load i32, ptr %4, align 4
  %15 = add nsw i32 %14, 1
  store i32 %15, ptr %4, align 4
  br label %5, !llvm.loop !5

16:                                               ; preds = %5
  %17 = load i32, ptr %3, align 4
  ret i32 %17
}