; Function Attrs: mustprogress nofree norecurse nosync nounwind willreturn memory(none) uwtable
define dso_local noundef i32 @_Z9TestEmptyi(i32 noundef %0) local_unnamed_addr #3 {
  %2 = icmp sgt i32 %0, 0
  br i1 %2, label %.lr.ph.preheader, label %._crit_edge

.lr.ph.preheader:                                 ; preds = %1
  %3 = add nsw i32 %0, -1
  %4 = zext nneg i32 %3 to i33
  %5 = add nsw i32 %0, -2
  %6 = zext i32 %5 to i33
  %7 = mul i33 %4, %6
  %8 = lshr i33 %7, 1
  %9 = trunc nuw i33 %8 to i32
  %10 = add i32 %0, %9
  %11 = add i32 %10, -1
  br label %._crit_edge

._crit_edge:                                      ; preds = %.lr.ph.preheader, %1
  %.06.lcssa = phi i32 [ 0, %1 ], [ %11, %.lr.ph.preheader ]
  ret i32 %.06.lcssa
}